; Function Attrs: mustprogress uwtable
define void @_ZN5Ipopt16NLPScalingObject27unapply_vector_scaling_d_LUERKNS_6MatrixERKNS_8SmartPtrIKNS_6VectorEEERKNS_11VectorSpaceE(ptr dead_on_unwind noalias writable writeonly sret(%"class.Ipopt::SmartPtr.1") align 8 captures(none) initializes((0, 8)) %0, ptr noundef nonnull align 8 dereferenceable(24) %1, ptr noundef nonnull align 8 dereferenceable(69) %2, ptr noundef nonnull readonly align 8 captures(none) dereferenceable(8) %3, ptr noundef nonnull align 8 dereferenceable(16) %4) local_unnamed_addr #7 align 2 personality ptr @__gxx_personality_v0 {
  %6 = alloca %"class.Ipopt::SmartPtr.0", align 8
  %7 = load ptr, ptr %1, align 8, !tbaa !8
  %8 = getelementptr inbounds nuw i8, ptr %7, i64 200
  %9 = load ptr, ptr %8, align 8
  %10 = tail call noundef zeroext i1 %9(ptr noundef nonnull align 8 dereferenceable(24) %1)
  br i1 %10, label %11, label %21

11:                                               ; preds = %5
  call void @llvm.lifetime.start.p0(i64 8, ptr nonnull %6) #17
  call void @_ZN5Ipopt16NLPScalingObject36unapply_vector_scaling_d_LU_NonConstERKNS_6MatrixERKNS_8SmartPtrIKNS_6VectorEEERKNS_11VectorSpaceE(ptr dead_on_unwind nonnull writable sret(%"class.Ipopt::SmartPtr.0") align 8 %6, ptr noundef nonnull align 8 dereferenceable(24) %1, ptr noundef nonnull align 8 dereferenceable(69) %2, ptr noundef nonnull align 8 dereferenceable(8) %3, ptr noundef nonnull align 8 dereferenceable(16) %4)
  tail call void @llvm.experimental.noalias.scope.decl(metadata !65)
  %12 = load ptr, ptr %6, align 8, !tbaa !20, !noalias !65
  %.not.i.i.i = icmp eq ptr %12, null
  br i1 %.not.i.i.i, label %.thread, label %13

.thread:                                          ; preds = %11
  store ptr null, ptr %0, align 8, !tbaa !14, !alias.scope !65
  br label %_ZN5Ipopt8SmartPtrINS_6VectorEED2Ev.exit

13:                                               ; preds = %11
  %14 = getelementptr inbounds nuw i8, ptr %12, i64 8
  %15 = load i32, ptr %14, align 8, !tbaa !3, !noalias !65
  store ptr %12, ptr %0, align 8, !tbaa !14, !alias.scope !65
  %16 = icmp eq i32 %15, 0
  br i1 %16, label %17, label %_ZN5Ipopt8SmartPtrINS_6VectorEED2Ev.exit

17:                                               ; preds = %13
  %18 = load ptr, ptr %12, align 8, !tbaa !8
  %19 = getelementptr inbounds nuw i8, ptr %18, i64 8
  %20 = load ptr, ptr %19, align 8
  tail call void %20(ptr noundef nonnull align 8 dereferenceable(205) %12) #17
  br label %_ZN5Ipopt8SmartPtrINS_6VectorEED2Ev.exit

_ZN5Ipopt8SmartPtrINS_6VectorEED2Ev.exit:         ; preds = %.thread, %13, %17
  call void @llvm.lifetime.end.p0(i64 8, ptr nonnull %6) #17
  br label %27

21:                                               ; preds = %5
  %22 = load ptr, ptr %3, align 8, !tbaa !14
  %.not.i.i.i8 = icmp eq ptr %22, null
  br i1 %.not.i.i.i8, label %_ZN5Ipopt8SmartPtrIKNS_6VectorEEC2ERKS3_.exit, label %23

23:                                               ; preds = %21
  %24 = getelementptr inbounds nuw i8, ptr %22, i64 8
  %25 = load i32, ptr %24, align 8, !tbaa !3
  %26 = add nsw i32 %25, 1
  store i32 %26, ptr %24, align 8, !tbaa !3
  br label %_ZN5Ipopt8SmartPtrIKNS_6VectorEEC2ERKS3_.exit

_ZN5Ipopt8SmartPtrIKNS_6VectorEEC2ERKS3_.exit:    ; preds = %21, %23
  store ptr %22, ptr %0, align 8, !tbaa !14
  br label %27

27:                                               ; preds = %_ZN5Ipopt8SmartPtrIKNS_6VectorEEC2ERKS3_.exit, %_ZN5Ipopt8SmartPtrINS_6VectorEED2Ev.exit
  ret void
}